(lp0
S'434 Unrestricted Upload of File with Dangerous Type'
p1
aS' ASP.NET PHP Language-independent'
p2
aS'top25'
p3
a.(lp0
S'616 Incomplete Identification of Uploaded File Variables (PHP)'
p1
aS' PHP'
p2
aS''
p3
a.(lp0
S'829 Inclusion of Functionality from Untrusted Control Sphere'
p1
aS''
p2
aS'top25'
p3
a.(lp0
S"98 Improper Control of Filename for Include/Require Statement in PHP Program ('PHP File Inclusion')"
p1
aS' PHP'
p2
aS''
p3
a.