(lp0
S'111 Direct Use of Unsafe JNI'
p1
aS' Java'
p2
aS''
p3
a.(lp0
S'112 Missing XML Validation'
p1
aS' All'
p2
aS''
p3
a.(lp0
S'114 Process Control'
p1
aS' All'
p2
aS''
p3
a.(lp0
S'200 Information Exposure'
p1
aS' All'
p2
aS''
p3
a.(lp0
S'202 Exposure of Sensitive Data Through Data Queries'
p1
aS' All'
p2
aS''
p3
a.(lp0
S'211 Information Exposure Through External Error Message'
p1
aS' PHP All'
p2
aS''
p3
a.(lp0
S'250 Execution with Unnecessary Privileges'
p1
aS' All' 
p2
aS'top25'
p3
a.(lp0
S'327 Use of a Broken or Risky Cryptographic Algorithm'
p1
aS' Language-independent'
p2
aS'top25'
p3
a.(lp0
S"402 Transmission of Private Resources into a New Sphere ('Resource Leak')"
p1
aS''
p2
ag2
a.(lp0
S'406 Insufficient Control of Network Message Volume (Network Amplification)'
p1
aS' All'
p2
aS''
p3
a.(lp0
S'441 Unintended Proxy/Intermediary'
p1
aS' All'
p2
aS''
p3
a.(lp0
S'550 Information Exposure Through Server Error Message'
p1
aS''
p2
ag2
a.(lp0
S'552 Files or Directories Accessible to External Parties'
p1
aS''
p2
ag2
a.(lp0
S'610 Externally Controlled Reference to a Resource in Another Sphere'
p1
aS''
p2
ag2
a.(lp0
S'668 Exposure of Resource to Wrong Sphere'
p1
aS''
p2
ag2
a.(lp0
S'669 Incorrect Resource Transfer Between Spheres'
p1
aS''
p2
ag2
a.(lp0
S'673 External Influence of Sphere Definition'
p1
aS''
p2
ag2
a.(lp0
S'684 Incorrect Provision of Specified Functionality'
p1
aS''
p2
ag2
a.(lp0
S'749 Exposed Dangerous Method or Function'
p1
aS' Language-Independent'
p2
aS''
p3
a.(lp0
S'778 Insufficient Logging'
p1
aS' Language-independent'
p2
aS''
p3
a.(lp0
S'798 Use of Hard-coded Credentials'
p1
aS' Language-independent'
p2
aS'top25'
p3
a.(lp0
S'829 Inclusion of Functionality from Untrusted Control Sphere'
p1
aS''
p2
aS'top25'
p3
a.(lp0
S'830 Inclusion of Web Functionality from an Untrusted Source'
p1
aS''
p2
ag2
a.
