(lp0
S'138 Improper Neutralization of Special Elements'
p1
aS' Language-independent'
p2
aS''
p3
a.(lp0
S'219 Sensitive Data Under Web Root'
p1
aS' All'
p2
aS''
p3
a.(lp0
S"22 Improper Limitation of a Pathname to a Restricted Directory ('Path Traversal')"
p1
aS' Language-independent'
p2
aS'top25'
p3
a.(lp0
S'220 Sensitive Data Under FTP Root'
p1
aS' All'
p2
aS''
p3
a.(lp0
S'246 J2EE Bad Practices: Direct Use of Sockets'
p1
aS' Java'
p2
aS''
p3
a.(lp0
S'247 Reliance on DNS Lookups in a Security Decision'
p1
aS' All'
p2
aS''
p3
a.(lp0
S'248 Uncaught Exception'
p1
aS' C++ Java .NET'
p2
aS''
p3
a.(lp0
S'250 Execution with Unnecessary Privileges'
p1
aS' All'
p2
aS'top25'
p3
a.(lp0
S'256 Plaintext Storage of a Password'
p1
aS' All'
p2
aS''
p3
a.(lp0
S'257 Storing Passwords in a Recoverable Format'
p1
aS' All'
p2
aS''
p3
a.(lp0
S'266 Incorrect Privilege Assignment'
p1
aS' All'
p2
aS''
p3
a.(lp0
S'276 Incorrect Default Permissions'
p1
aS' All'
p2
aS''
p3
a.(lp0
S'280 Improper Handling of Insufficient Permissions or Privileges '
p1
aS' All'
p2
aS''
p3
a.(lp0
S'286 Incorrect User Management'
p1
aS' Language-independent'
p2
aS''
p3
a.(lp0
S'317 Plaintext Storage in GUI'
p1
aS' All'
p2
aS''
p3
a.(lp0
S'358 Improperly Implemented Security Check for Standard'
p1
aS' All'
p2
aS''
p3
a.(lp0
S'359 Privacy Violation'
p1
aS' All'
p2
aS''
p3
a.(lp0
S'377 Insecure Temporary File'
p1
aS' All'
p2
aS''
p3
a.(lp0
S'404 Improper Resource Shutdown or Release'
p1
aS' All'
p2
aS''
p3
a.(lp0
S'494 Download of Code Without Integrity Check'
p1
aS' Language-independent'
p2
aS'top25'
p3
a.(lp0
S'530 Exposure of Backup File to an Unauthorized Control Sphere'
p1
aS''
p2
ag2
a.(lp0
S'552 Files or Directories Accessible to External Parties'
p1
aS''
p2
ag2
a.(lp0
S'554 ASP.NET Misconfiguration: Not Using Input Validation Framework'
p1
aS' .NET'
p2
aS''
p3
a.(lp0
S'555 J2EE Misconfiguration: Plaintext Password in Configuration File'
p1
aS''
p2
ag2
a.(lp0
S'556 ASP.NET Misconfiguration: Use of Identity Impersonation'
p1
aS''
p2
ag2
a.(lp0
S'592 Authentication Bypass Issues'
p1
aS''
p2
ag2
a.(lp0
S'599 Trust of OpenSSL Certificate Without Validation'
p1
aS''
p2
ag2
a.(lp0
S'602 Client-Side Enforcement of Server-Side Security'
p1
aS' All'
p2
aS''
p3
a.(lp0
S'603 Use of Client-Side Authentication'
p1
aS''
p2
ag2
a.(lp0
S'638 Not Using Complete Mediation'
p1
aS' All'
p2
aS''
p3
a.(lp0
S'653 Insufficient Compartmentalization'
p1
aS' All'
p2
aS''
p3
a.(lp0
S'705 Incorrect Control Flow Scoping'
p1
aS' All'
p2
aS''
p3
a.(lp0
S'733 Compiler Optimization Removal or Modification of Security-critical Code'
p1
aS' C C++ All Compiled Languages'
p2
aS''
p3
a.(lp0
S'842 Placement of User into Incorrect Group'
p1
aS' Language-independent'
p2
aS''
p3
a.