(lp0
S'11 ASP.NET Misconfiguration: Creating Debug Binary'
p1
aS' .NET'
p2
aS''
p3
a.(lp0
S'112 Missing XML Validation'
p1
aS' All'
p2
aS''
p3
a.(lp0
S"113 Improper Neutralization of CRLF Sequences in HTTP Headers ('HTTP Response Splitting')"
p1
aS' All'
p2
aS''
p3
a.(lp0
S'12 ASP.NET Misconfiguration: Missing Custom Error Page'
p1
aS' .NET'
p2
aS''
p3
a.(lp0
S'13 ASP.NET Misconfiguration: Password in Configuration File'
p1
aS''
p2
ag2
a.(lp0
S'209 Information Exposure Through an Error Message'
p1
aS' PHP All'
p2
aS''
p3
a.(lp0
S'211 Information Exposure Through External Error Message'
p1
aS' PHP All'
p2
aS''
p3
a.(lp0
S'219 Sensitive Data Under Web Root'
p1
aS' All'
p2
aS''
p3
a.(lp0
S"22 Improper Limitation of a Pathname to a Restricted Directory ('Path Traversal')"
p1
aS' Language-independent'
p2
aS'top25'
p3
a.(lp0
S'220 Sensitive Data Under FTP Root'
p1
aS' All'
p2
aS''
p3
a.(lp0
S'222 Truncation of Security-relevant Information'
p1
aS' All'
p2
aS''
p3
a.(lp0
S'246 J2EE Bad Practices: Direct Use of Sockets'
p1
aS' Java'
p2
aS''
p3
a.(lp0
S'247 Reliance on DNS Lookups in a Security Decision'
p1
aS' All'
p2
aS''
p3
a.(lp0
S'284 Improper Access Control'
p1
aS''
p2
ag2
a.(lp0
S'288 Authentication Bypass Using an Alternate Path or Channel'
p1
aS' All'
p2
aS''
p3
a.(lp0
S'292 Trusting Self-reported DNS Name'
p1
aS' All'
p2
aS''
p3
a.(lp0
S'293 Using Referer Field for Authentication'
p1
aS' All'
p2
aS''
p3
a.(lp0
S'294 Authentication Bypass by Capture-replay'
p1
aS' All'
p2
aS''
p3
a.(lp0
S'297 Improper Validation of Host-specific Certificate Data'
p1
aS' All'
p2
aS''
p3
a.(lp0
S"300 Channel Accessible by Non-Endpoint ('Man-in-the-Middle')"
p1
aS' All'
p2
aS''
p3
a.(lp0
S'301 Reflection Attack in an Authentication Protocol'
p1
aS' All'
p2
aS''
p3
a.(lp0
S'308 Use of Single-factor Authentication'
p1
aS' All'
p2
aS''
p3
a.(lp0
S'350 Improperly Trusted Reverse DNS'
p1
aS' All'
p2
aS''
p3
a.(lp0
S"400 Uncontrolled Resource Consumption ('Resource Exhaustion')"
p1
aS' All'
p2
aS''
p3
a.(lp0
S'404 Improper Resource Shutdown or Release'
p1
aS' All'
p2
aS''
p3
a.(lp0
S'406 Insufficient Control of Network Message Volume (Network Amplification)'
p1
aS' All'
p2
aS''
p3
a.(lp0
S"425 Direct Request ('Forced Browsing')"
p1
aS' Language-independent'
p2
aS''
p3
a.(lp0
S'433 Unparsed Raw Web Content Delivery'
p1
aS' All'
p2
aS''
p3
a.(lp0
S'434 Unrestricted Upload of File with Dangerous Type'
p1
aS' ASP.NET PHP Language-independent'
p2
aS'top25'
p3
a.(lp0
S'441 Unintended Proxy/Intermediary'
p1
aS' All'
p2
aS''
p3
a.(lp0
S"444 Inconsistent Interpretation of HTTP Requests ('HTTP Request Smuggling')"
p1
aS' All'
p2
aS''
p3
a.(lp0
S'472 External Control of Assumed-Immutable Web Parameter'
p1
aS' All'
p2
aS''
p3
a.(lp0
S'494 Download of Code Without Integrity Check'
p1
aS' Language-independent'
p2
aS'top25'
p3
a.(lp0
S'506 Embedded Malicious Code'
p1
aS''
p2
ag2
a.(lp0
S'521 Weak Password Requirements'
p1
aS''
p2
ag2
a.(lp0
S'530 Exposure of Backup File to an Unauthorized Control Sphere'
p1
aS''
p2
ag2
a.(lp0
S'533 Information Exposure Through Server Log Files'
p1
aS''
p2
ag2
a.(lp0
S'550 Information Exposure Through Server Error Message'
p1
aS''
p2
ag2
a.(lp0
S'554 ASP.NET Misconfiguration: Not Using Input Validation Framework'
p1
aS' .NET'
p2
aS''
p3
a.(lp0
S'556 ASP.NET Misconfiguration: Use of Identity Impersonation'
p1
aS''
p2
ag2
a.(lp0
S'564 SQL Injection: Hibernate'
p1
aS''
p2
ag2
a.(lp0
S'566 Authorization Bypass Through User-Controlled SQL Primary Key'
p1
aS''
p2
ag2
a.(lp0
S'599 Trust of OpenSSL Certificate Without Validation'
p1
aS''
p2
ag2
a.(lp0
S"601 URL Redirection to Untrusted Site ('Open Redirect')"
p1
aS' Language-independent'
p2
aS'top25'
p3
a.(lp0
S'605 Multiple Binds to the Same Port'
p1
aS' All'
p2
aS''
p3
a.(lp0
S"619 Dangling Database Cursor ('Cursor Injection')"
p1
aS' SQL'
p2
aS''
p3
a.(lp0
S'650 Trusting HTTP Permission Methods on the Server Side'
p1
aS' All'
p2
aS''
p3
a.(lp0
S"77 Improper Neutralization of Special Elements used in a Command ('Command Injection')"
p1
aS' All'
p2
aS''
p3
a.(lp0
S'778 Insufficient Logging'
p1
aS' Language-independent'
p2
aS''
p3
a.(lp0
S"78 Improper Neutralization of Special Elements used in an OS Command ('OS Command Injection')"
p1
aS' All'
p2
aS'top25'
p3
a.(lp0
S'790 Improper Filtering of Special Elements'
p1
aS''
p2
ag2
a.(lp0
S'798 Use of Hard-coded Credentials'
p1
aS' Language-independent'
p2
aS'top25'
p3
a.(lp0
S'829 Inclusion of Functionality from Untrusted Control Sphere'
p1
aS''
p2
aS'top25'
p3
a.(lp0
S"89 Improper Neutralization of Special Elements used in an SQL Command ('SQL Injection')"
p1
aS' All'
p2
aS'top25'
p3
a.(lp0
S"90 Improper Neutralization of Special Elements used in an LDAP Query ('LDAP Injection')"
p1
aS' All'
p2
aS''
p3
a.(lp0
S'91 XML Injection (aka Blind XPath Injection)'
p1
aS' All'
p2
aS''
p3
a.