(lp0
S'13 ASP.NET Misconfiguration: Password in Configuration File'
p1
aS''
p2
ag2
a.(lp0
S'172 Encoding Error'
p1
aS' All'
p2
aS''
p3
a.(lp0
S'200 Information Exposure'
p1
aS' All'
p2
aS''
p3
a.(lp0
S'257 Storing Passwords in a Recoverable Format'
p1
aS' All'
p2
aS''
p3
a.(lp0
S'258 Empty Password in Configuration File'
p1
aS' All'
p2
aS''
p3
a.(lp0
S'259 Use of Hard-coded Password'
p1
aS' Language-independent'
p2
aS''
p3
a.(lp0
S'260 Password in Configuration File'
p1
aS' All'
p2
aS''
p3
a.(lp0
S'261 Weak Cryptography for Passwords'
p1
aS' All'
p2
aS''
p3
a.(lp0
S'262 Not Using Password Aging'
p1
aS' All'
p2
aS''
p3
a.(lp0
S'263 Password Aging with Long Expiration'
p1
aS' All'
p2
aS''
p3
a.(lp0
S'294 Authentication Bypass by Capture-replay'
p1
aS' All'
p2
aS''
p3
a.(lp0
S"300 Channel Accessible by Non-Endpoint ('Man-in-the-Middle')"
p1
aS' All'
p2
aS''
p3
a.(lp0
S'301 Reflection Attack in an Authentication Protocol'
p1
aS' All'
p2
aS''
p3
a.(lp0
S'309 Use of Password System for Primary Authentication'
p1
aS' All'
p2
aS''
p3
a.(lp0
S'311 Missing Encryption of Sensitive Data'
p1
aS' Language-independent'
p2
aS'top25'
p3
a.(lp0
S'312 Cleartext Storage of Sensitive Information'
p1
aS''
p2
ag2
a.(lp0
S'313 Plaintext Storage in a File or on Disk'
p1
aS' All'
p2
aS''
p3
a.(lp0
S'314 Plaintext Storage in the Registry'
p1
aS' All'
p2
aS''
p3
a.(lp0
S'315 Plaintext Storage in a Cookie'
p1
aS' All'
p2
aS''
p3
a.(lp0
S'316 Plaintext Storage in Memory'
p1
aS' All'
p2
aS''
p3
a.(lp0
S'317 Plaintext Storage in GUI'
p1
aS' All'
p2
aS''
p3
a.(lp0
S'318 Plaintext Storage in Executable'
p1
aS' All'
p2
aS''
p3
a.(lp0
S'319 Cleartext Transmission of Sensitive Information'
p1
aS' Language-independent'
p2
aS''
p3
a.(lp0
S'321 Use of Hard-coded Cryptographic Key'
p1
aS' All'
p2
aS''
p3
a.(lp0
S'322 Key Exchange without Entity Authentication'
p1
aS' All'
p2
aS''
p3
a.(lp0
S'323 Reusing a Nonce Key Pair in Encryption'
p1
aS' All'
p2
aS''
p3
a.(lp0
S'324 Use of a Key Past its Expiration Date'
p1
aS' All'
p2
aS''
p3
a.(lp0
S'325 Missing Required Cryptographic Step'
p1
aS' All'
p2
aS''
p3
a.(lp0
S'326 Inadequate Encryption Strength'
p1
aS' All'
p2
aS''
p3
a.(lp0
S'327 Use of a Broken or Risky Cryptographic Algorithm'
p1
aS' Language-independent'
p2
aS'top25'
p3
a.(lp0
S'329 Not Using a Random IV with CBC Mode'
p1
aS' All'
p2
aS''
p3
a.(lp0
S'330 Use of Insufficiently Random Values'
p1
aS' Language-independent'
p2
aS''
p3
a.(lp0
S'331 Insufficient Entropy'
p1
aS' All'
p2
aS''
p3
a.(lp0
S'332 Insufficient Entropy in PRNG'
p1
aS' All'
p2
aS''
p3
a.(lp0
S'333 Improper Handling of Insufficient Entropy in TRNG'
p1
aS' All'
p2
aS''
p3
a.(lp0
S'334 Small Space of Random Values'
p1
aS' All'
p2
aS''
p3
a.(lp0
S'335 PRNG Seed Error'
p1
aS' All'
p2
aS''
p3
a.(lp0
S'336 Same Seed in PRNG'
p1
aS' All'
p2
aS''
p3
a.(lp0
S'337 Predictable Seed in PRNG'
p1
aS' All'
p2
aS''
p3
a.(lp0
S'338 Use of Cryptographically Weak PRNG'
p1
aS' All'
p2
aS''
p3
a.(lp0
S'339 Small Seed Space in PRNG'
p1
aS' All'
p2
aS''
p3
a.(lp0
S'340 Predictability Problems'
p1
aS''
p2
ag2
a.(lp0
S'342 Predictable Exact Value from Previous Values'
p1
aS' All'
p2
aS''
p3
a.(lp0
S'343 Predictable Value Range from Previous Values'
p1
aS' All'
p2
aS''
p3
a.(lp0
S'347 Improper Verification of Cryptographic Signature'
p1
aS' All'
p2
aS''
p3
a.(lp0
S'359 Privacy Violation'
p1
aS' All'
p2
aS''
p3
a.(lp0
S'419 Unprotected Primary Channel'
p1
aS' All'
p2
aS''
p3
a.(lp0
S'420 Unprotected Alternate Channel'
p1
aS' All'
p2
aS''
p3
a.(lp0
S'441 Unintended Proxy/Intermediary'
p1
aS' All'
p2
aS''
p3
a.(lp0
S'5 J2EE Misconfiguration: Data Transmission Without Encryption'
p1
aS' Java'
p2
aS''
p3
a.(lp0
S'521 Weak Password Requirements'
p1
aS''
p2
ag2
a.(lp0
S'522 Insufficiently Protected Credentials'
p1
aS''
p2
ag2
a.(lp0
S'523 Unprotected Transport of Credentials'
p1
aS''
p2
ag2
a.(lp0
S'530 Exposure of Backup File to an Unauthorized Control Sphere'
p1
aS''
p2
ag2
a.(lp0
S'538 File and Directory Information Exposure'
p1
aS' All'
p2
aS''
p3
a.(lp0
S'549 Missing Password Field Masking'
p1
aS''
p2
ag2
a.(lp0
S'552 Files or Directories Accessible to External Parties'
p1
aS''
p2
ag2
a.(lp0
S'555 J2EE Misconfiguration: Plaintext Password in Configuration File'
p1
aS''
p2
ag2
a.(lp0
S'593 Authentication Bypass: OpenSSL CTX Object Modified after SSL Objects are Created'
p1
aS''
p2
ag2
a.(lp0
S'599 Trust of OpenSSL Certificate Without Validation'
p1
aS''
p2
ag2
a.(lp0
S"614 Sensitive Cookie in HTTPS Session Without 'Secure' Attribute"
p1
aS''
p2
ag2
a.(lp0
S'620 Unverified Password Change'
p1
aS' All'
p2
aS''
p3
a.(lp0
S'640 Weak Password Recovery Mechanism for Forgotten Password'
p1
aS' All'
p2
aS''
p3
a.(lp0
S'642 External Control of Critical State Data'
p1
aS' All'
p2
aS''
p3
a.(lp0
S'649 Reliance on Obfuscation or Encryption of Security-Relevant Inputs without Integrity Checking'
p1
aS' All'
p2
aS''
p3
a.(lp0
S'656 Reliance on Security Through Obscurity'
p1
aS' All'
p2
aS''
p3
a.(lp0
S'733 Compiler Optimization Removal or Modification of Security-critical Code'
p1
aS' C C++ All Compiled Languages'
p2
aS''
p3
a.(lp0
S"757 Selection of Less-Secure Algorithm During Negotiation ('Algorithm Downgrade')"
p1
aS''
p2
ag2
a.(lp0
S'759 Use of a One-Way Hash without a Salt'
p1
aS''
p2
aS'top25'
p3
a.(lp0
S'760 Use of a One-Way Hash with a Predictable Salt'
p1
aS''
p2
ag2
a.(lp0
S'780 Use of RSA Algorithm without OAEP'
p1
aS''
p2
ag2
a.(lp0
S'798 Use of Hard-coded Credentials'
p1
aS' Language-independent'
p2
aS'top25'
p3
a.(lp0
S'804 Guessable CAPTCHA'
p1
aS' Language-independent'
p2
aS''
p3
a.(lp0
S'836 Use of Password Hash Instead of Password for Authentication'
p1
aS' Language-independent'
p2
aS''
p3
a.