(lp0
S'117 Improper Output Neutralization for Logs'
p1
aS' All'
p2
aS''
p3
a.(lp0
S'359 Privacy Violation'
p1
aS' All'
p2
aS''
p3
a.(lp0
S'530 Exposure of Backup File to an Unauthorized Control Sphere'
p1
aS''
p2
ag2
a.(lp0
S'532 Information Exposure Through Log Files'
p1
aS''
p2
ag2
a.(lp0
S'533 Information Exposure Through Server Log Files'
p1
aS''
p2
ag2
a.(lp0
S'534 Information Exposure Through Debug Log Files'
p1
aS''
p2
ag2
a.(lp0
S'542 Information Exposure Through Cleanup Log Files'
p1
aS''
p2
ag2
a.(lp0
S'778 Insufficient Logging'
p1
aS' Language-independent'
p2
aS''
p3
a.(lp0
S'779 Logging of Excessive Data'
p1
aS' Language-independent'
p2
aS''
p3
a.