(lp0
S'247 Reliance on DNS Lookups in a Security Decision'
p1
aS' All'
p2
aS''
p3
a.(lp0
S'290 Authentication Bypass by Spoofing'
p1
aS''
p2
ag2
a.(lp0
S'292 Trusting Self-reported DNS Name'
p1
aS' All'
p2
aS''
p3
a.(lp0
S'293 Using Referer Field for Authentication'
p1
aS' All'
p2
aS''
p3
a.(lp0
S'294 Authentication Bypass by Capture-replay'
p1
aS' All'
p2
aS''
p3
a.(lp0
S'297 Improper Validation of Host-specific Certificate Data'
p1
aS' All'
p2
aS''
p3
a.(lp0
S"300 Channel Accessible by Non-Endpoint ('Man-in-the-Middle')"
p1
aS' All'
p2
aS''
p3
a.(lp0
S'345 Insufficient Verification of Data Authenticity'
p1
aS' All'
p2
aS''
p3
a.(lp0
S'350 Improperly Trusted Reverse DNS'
p1
aS' All'
p2
aS''
p3
a.(lp0
S'358 Improperly Implemented Security Check for Standard'
p1
aS' All'
p2
aS''
p3
a.(lp0
S'419 Unprotected Primary Channel'
p1
aS' All'
p2
aS''
p3
a.(lp0
S'420 Unprotected Alternate Channel'
p1
aS' All'
p2
aS''
p3
a.(lp0
S'441 Unintended Proxy/Intermediary'
p1
aS' All'
p2
aS''
p3
a.(lp0
S'599 Trust of OpenSSL Certificate Without Validation'
p1
aS''
p2
ag2
a.(lp0
S'603 Use of Client-Side Authentication'
p1
aS''
p2
ag2
a.(lp0
S'693 Protection Mechanism Failure'
p1
aS' All'
p2
aS''
p3
a.(lp0
S'784 Reliance on Cookies without Validation and Integrity Checking in a Security Decision'
p1
aS' Language-independent'
p2
aS''
p3
a.(lp0
S'807 Reliance on Untrusted Inputs in a Security Decision'
p1
aS' Language-independent'
p2
aS'top25'
p3
a.(lp0
S'830 Inclusion of Web Functionality from an Untrusted Source'
p1
aS''
p2
ag2
a.