(lp0
S'208 Information Exposure Through Timing Discrepancy'
p1
aS' All'
p2
aS''
p3
a.(lp0
S'307 Improper Restriction of Excessive Authentication Attempts'
p1
aS' Language-independent'
p2
aS'top25'
p3
a.(lp0
S"362 Concurrent Execution using Shared Resource with Improper Synchronization ('Race Condition')"
p1
aS' C C++ Java Language-independent'
p2
aS''
p3
a.(lp0
S'363 Race Condition Enabling Link Following'
p1
aS' All'
p2
aS''
p3
a.(lp0
S'364 Signal Handler Race Condition'
p1
aS' C C++'
p2
aS''
p3
a.(lp0
S'365 Race Condition in Switch'
p1
aS' C C++ Java .NET'
p2
aS''
p3
a.(lp0
S'366 Race Condition within a Thread'
p1
aS' C C++ Java .NET'
p2
aS''
p3
a.(lp0
S'367 Time-of-check Time-of-use (TOCTOU) Race Condition'
p1
aS' All'
p2
aS''
p3
a.(lp0
S'368 Context Switching Race Condition'
p1
aS' All'
p2
aS''
p3
a.(lp0
S'377 Insecure Temporary File'
p1
aS' All'
p2
aS''
p3
a.(lp0
S'383 J2EE Bad Practices: Direct Use of Threads'
p1
aS' Java'
p2
aS''
p3
a.(lp0
S'385 Covert Timing Channel'
p1
aS' All'
p2
aS''
p3
a.(lp0
S"400 Uncontrolled Resource Consumption ('Resource Exhaustion')"
p1
aS' All'
p2
aS''
p3
a.(lp0
S'404 Improper Resource Shutdown or Release'
p1
aS' All'
p2
aS''
p3
a.(lp0
S'405 Asymmetric Resource Consumption (Amplification)'
p1
aS' All'
p2
aS''
p3
a.(lp0
S'412 Unrestricted Externally Accessible Lock'
p1
aS' All'
p2
aS''
p3
a.(lp0
S'413 Improper Resource Locking'
p1
aS' All'
p2
aS''
p3
a.(lp0
S'414 Missing Lock Check'
p1
aS' All'
p2
aS''
p3
a.(lp0
S'421 Race Condition During Access to Alternate Channel'
p1
aS' All'
p2
aS''
p3
a.(lp0
S'432 Dangerous Signal Handler not Disabled During Sensitive Operations'
p1
aS' Language-independent'
p2
aS''
p3
a.(lp0
S'524 Information Exposure Through Caching'
p1
aS''
p2
ag2
a.(lp0
S'543 Use of Singleton Pattern Without Synchronization in a Multithreaded Context'
p1
aS' Java C++'
p2
aS''
p3
a.(lp0
S'558 Use of getlogin() in Multithreaded Application'
p1
aS' C C++'
p2
aS''
p3
a.(lp0
S'567 Unsynchronized Access to Shared Data in a Multithreaded Context'
p1
aS' Java'
p2
aS''
p3
a.(lp0
S'574 EJB Bad Practices: Use of Synchronization Primitives'
p1
aS' Java'
p2
aS''
p3
a.(lp0
S'585 Empty Synchronized Block'
p1
aS' Java'
p2
aS''
p3
a.(lp0
S'645 Overly Restrictive Account Lockout Mechanism'
p1
aS' All'
p2
aS''
p3
a.(lp0
S'662 Improper Synchronization'
p1
aS''
p2
ag2
a.(lp0
S'663 Use of a Non-reentrant Function in a Concurrent Context'
p1
aS''
p2
ag2
a.(lp0
S'664 Improper Control of a Resource Through its Lifetime'
p1
aS''
p2
ag2
a.(lp0
S'666 Operation on Resource in Wrong Phase of Lifetime'
p1
aS''
p2
ag2
a.(lp0
S'667 Improper Locking'
p1
aS''
p2
ag2
a.(lp0
S'674 Uncontrolled Recursion'
p1
aS' All'
p2
aS''
p3
a.(lp0
S'764 Multiple Locks of a Critical Resource'
p1
aS''
p2
ag2
a.(lp0
S'765 Multiple Unlocks of a Critical Resource'
p1
aS''
p2
ag2
a.(lp0
S'770 Allocation of Resources Without Limits or Throttling'
p1
aS' Language-Independent'
p2
aS''
p3
a.(lp0
S'772 Missing Release of Resource after Effective Lifetime'
p1
aS''
p2
ag2
a.(lp0
S'799 Improper Control of Interaction Frequency'
p1
aS' Language-independent'
p2
aS''
p3
a.(lp0
S'820 Missing Synchronization'
p1
aS''
p2
ag2
a.(lp0
S'821 Incorrect Synchronization'
p1
aS''
p2
ag2
a.(lp0
S'826 Premature Release of Resource During Expected Lifetime'
p1
aS''
p2
ag2
a.(lp0
S'828 Signal Handler with Functionality that is not Asynchronous-Safe'
p1
aS''
p2
ag2
a.(lp0
S'831 Signal Handler Function Associated with Multiple Signals'
p1
aS''
p2
ag2
a.(lp0
S'832 Unlock of a Resource that is not Locked'
p1
aS''
p2
ag2
a.(lp0
S'833 Deadlock'
p1
aS''
p2
ag2
a.(lp0
S'834 Excessive Iteration'
p1
aS''
p2
ag2
a.(lp0
S"835 Loop with Unreachable Exit Condition ('Infinite Loop')"
p1
aS' Language-independent'
p2
aS''
p3
a.