(lp0
S'114 Process Control'
p1
aS' All'
p2
aS''
p3
a.(lp0
S'123 Write-what-where Condition'
p1
aS' C C++'
p2
aS''
p3
a.(lp0
S'267 Privilege Defined With Unsafe Actions'
p1
aS' All'
p2
aS''
p3
a.(lp0
S'285 Improper Authorization'
p1
aS' Language-independent'
p2
aS''
p3
a.(lp0
S"300 Channel Accessible by Non-Endpoint ('Man-in-the-Middle')"
p1
aS' All'
p2
aS''
p3
a.(lp0
S'302 Authentication Bypass by Assumed-Immutable Data'
p1
aS' All'
p2
aS''
p3
a.(lp0
S'311 Missing Encryption of Sensitive Data'
p1
aS' Language-independent'
p2
aS'top25'
p3
a.(lp0
S'345 Insufficient Verification of Data Authenticity'
p1
aS' All'
p2
aS''
p3
a.(lp0
S'348 Use of Less Trusted Source'
p1
aS' All'
p2
aS''
p3
a.(lp0
S'349 Acceptance of Extraneous Untrusted Data With Trusted Data'
p1
aS' All'
p2
aS''
p3
a.(lp0
S'354 Improper Validation of Integrity Check Value'
p1
aS' All'
p2
aS''
p3
a.(lp0
S'358 Improperly Implemented Security Check for Standard'
p1
aS' All'
p2
aS''
p3
a.(lp0
S'359 Privacy Violation'
p1
aS' All'
p2
aS''
p3
a.(lp0
S'367 Time-of-check Time-of-use (TOCTOU) Race Condition'
p1
aS' All'
p2
aS''
p3
a.(lp0
S'471 Modification of Assumed-Immutable Data (MAID)'
p1
aS' All'
p2
aS''
p3
a.(lp0
S'472 External Control of Assumed-Immutable Web Parameter'
p1
aS' All'
p2
aS''
p3
a.(lp0
S'473 PHP External Variable Modification'
p1
aS' PHP'
p2
aS''
p3
a.(lp0
S'494 Download of Code Without Integrity Check'
p1
aS' Language-independent'
p2
aS'top25'
p3
a.(lp0
S'502 Deserialization of Untrusted Data'
p1
aS' All'
p2
aS''
p3
a.(lp0
S'538 File and Directory Information Exposure'
p1
aS' All'
p2
aS''
p3
a.(lp0
S'552 Files or Directories Accessible to External Parties'
p1
aS''
p2
ag2
a.(lp0
S'554 ASP.NET Misconfiguration: Not Using Input Validation Framework'
p1
aS' .NET'
p2
aS''
p3
a.(lp0
S'565 Reliance on Cookies without Validation and Integrity Checking'
p1
aS''
p2
ag2
a.(lp0
S'567 Unsynchronized Access to Shared Data in a Multithreaded Context'
p1
aS' Java'
p2
aS''
p3
a.(lp0
S'591 Sensitive Data Storage in Improperly Locked Memory'
p1
aS''
p2
ag2
a.(lp0
S'642 External Control of Critical State Data'
p1
aS' All'
p2
aS''
p3
a.(lp0
S'707 Improper Enforcement of Message or Data Structure'
p1
aS' All'
p2
aS''
p3
a.(lp0
S'784 Reliance on Cookies without Validation and Integrity Checking in a Security Decision'
p1
aS' Language-independent'
p2
aS''
p3
a.
