(lp0
S'11 ASP.NET Misconfiguration: Creating Debug Binary'
p1
aS' .NET'
p2
aS''
p3
a.(lp0
S'112 Missing XML Validation'
p1
aS' All'
p2
aS''
p3
a.(lp0
S"113 Improper Neutralization of CRLF Sequences in HTTP Headers ('HTTP Response Splitting')"
p1
aS' All'
p2
aS''
p3
a.(lp0
S'12 ASP.NET Misconfiguration: Missing Custom Error Page'
p1
aS' .NET'
p2
aS''
p3
a.(lp0
S'177 Improper Handling of URL Encoding (Hex Encoding)'
p1
aS' All'
p2
aS''
p3
a.(lp0
S'202 Exposure of Sensitive Data Through Data Queries'
p1
aS' All'
p2
aS''
p3
a.(lp0
S'219 Sensitive Data Under Web Root'
p1
aS' All'
p2
aS''
p3
a.(lp0
S'270 Privilege Context Switching Error'
p1
aS' All'
p2
aS''
p3
a.(lp0
S'290 Authentication Bypass by Spoofing'
p1
aS''
p2
ag2
a.(lp0
S'293 Using Referer Field for Authentication'
p1
aS' All'
p2
aS''
p3
a.(lp0
S'368 Context Switching Race Condition'
p1
aS' All'
p2
aS''
p3
a.(lp0
S"425 Direct Request ('Forced Browsing')"
p1
aS' Language-independent'
p2
aS''
p3
a.(lp0
S'433 Unparsed Raw Web Content Delivery'
p1
aS' All'
p2
aS''
p3
a.(lp0
S'434 Unrestricted Upload of File with Dangerous Type'
p1
aS' ASP.NET PHP Language-independent'
p2
aS'top25'
p3
a.(lp0
S"444 Inconsistent Interpretation of HTTP Requests ('HTTP Request Smuggling')"
p1
aS' All'
p2
aS''
p3
a.(lp0
S'472 External Control of Assumed-Immutable Web Parameter'
p1
aS' All'
p2
aS''
p3
a.(lp0
S'473 PHP External Variable Modification'
p1
aS' PHP'
p2
aS''
p3
a.(lp0
S'525 Information Exposure Through Browser Caching'
p1
aS''
p2
ag2
a.(lp0
S'536 Information Exposure Through Servlet Runtime Error Message'
p1
aS''
p2
ag2
a.(lp0
S'539 Information Exposure Through Persistent Cookies'
p1
aS''
p2
ag2
a.(lp0
S'554 ASP.NET Misconfiguration: Not Using Input Validation Framework'
p1
aS' .NET'
p2
aS''
p3
a.(lp0
S'565 Reliance on Cookies without Validation and Integrity Checking'
p1
aS''
p2
ag2
a.(lp0
S'598 Information Exposure Through Query Strings in GET Request'
p1
aS''
p2
ag2
a.(lp0
S"601 URL Redirection to Untrusted Site ('Open Redirect')"
p1
aS' Language-independent'
p2
aS'top25'
p3
a.(lp0
S'611 Information Exposure Through XML External Entity Reference'
p1
aS''
p2
ag2
a.(lp0
S'613 Insufficient Session Expiration'
p1
aS''
p2
ag2
a.(lp0
S"614 Sensitive Cookie in HTTPS Session Without 'Secure' Attribute"
p1
aS''
p2
ag2
a.(lp0
S'616 Incomplete Identification of Uploaded File Variables (PHP)'
p1
aS' PHP'
p2
aS''
p3
a.(lp0
S'618 Exposed Unsafe ActiveX Method'
p1
aS''
p2
ag2
a.(lp0
S'623 Unsafe ActiveX Control Marked Safe For Scripting'
p1
aS''
p2
ag2
a.(lp0
S'624 Executable Regular Expression Error'
p1
aS' PHP Perl'
p2
aS''
p3
a.(lp0
S"643 Improper Neutralization of Data within XPath Expressions ('XPath Injection')"
p1
aS' All'
p2
aS''
p3
a.(lp0
S'644 Improper Neutralization of HTTP Headers for Scripting Syntax'
p1
aS' All'
p2
aS''
p3
a.(lp0
S'647 Use of Non-Canonical URL Paths for Authorization Decisions'
p1
aS' Language-independent'
p2
aS''
p3
a.(lp0
S'650 Trusting HTTP Permission Methods on the Server Side'
p1
aS' All'
p2
aS''
p3
a.(lp0
S'651 Information Exposure Through WSDL File'
p1
aS' All'
p2
aS''
p3
a.(lp0
S"652 Improper Neutralization of Data within XQuery Expressions ('XQuery Injection')"
p1
aS' All'
p2
aS''
p3
a.(lp0
S'698 Redirect Without Exit'
p1
aS''
p2
ag2
a.(lp0
S'7 J2EE Misconfiguration: Missing Custom Error Page'
p1
aS' Java'
p2
aS''
p3
a.(lp0
S"776 Unrestricted Recursive Entity References in DTDs ('XML Bomb')"
p1
aS' XML'
p2
aS''
p3
a.(lp0
S"79 Improper Neutralization of Input During Web Page Generation ('Cross-site Scripting')"
p1
aS' Language-independent'
p2
aS'top25'
p3
a.(lp0
S'80 Improper Neutralization of Script-Related HTML Tags in a Web Page (Basic XSS)'
p1
aS' All'
p2
aS''
p3
a.(lp0
S'804 Guessable CAPTCHA'
p1
aS' Language-independent'
p2
aS''
p3
a.(lp0
S'81 Improper Neutralization of Script in an Error Message Web Page'
p1
aS' All'
p2
aS''
p3
a.(lp0
S'82 Improper Neutralization of Script in Attributes of IMG Tags in a Web Page'
p1
aS' All'
p2
aS''
p3
a.(lp0
S'827 Improper Control of Document Type Definition'
p1
aS''
p2
ag2
a.(lp0
S'83 Improper Neutralization of Script in Attributes in a Web Page'
p1
aS' All'
p2
aS''
p3
a.(lp0
S'830 Inclusion of Web Functionality from an Untrusted Source'
p1
aS''
p2
ag2
a.(lp0
S'84 Improper Neutralization of Encoded URI Schemes in a Web Page'
p1
aS' All'
p2
aS''
p3
a.(lp0
S'85 Doubled Character XSS Manipulations'
p1
aS' All'
p2
aS''
p3
a.(lp0
S'86 Improper Neutralization of Invalid Characters in Identifiers in Web Pages'
p1
aS' All'
p2
aS''
p3
a.(lp0
S'87 Improper Neutralization of Alternate XSS Syntax'
p1
aS' All'
p2
aS''
p3
a.(lp0
S'91 XML Injection (aka Blind XPath Injection)'
p1
aS' All'
p2
aS''
p3
a.(lp0
S'97 Improper Neutralization of Server-Side Includes (SSI) Within a Web Page'
p1
aS' All'
p2
aS''
p3
a.